target datalayout = "e-m:e-p270:32:32-p271:32:32-p272:64:64-i64:64-i128:128-f80:128-n8:16:32:64-S128"
target triple = "x86_64-pc-linux-gnu"

%struct.darktable_t = type { %struct.dt_codepath_t, i32, i32, ptr, ptr, ptr, ptr, ptr, ptr, ptr, ptr, ptr, ptr, ptr, ptr, ptr, ptr, ptr, ptr, ptr, ptr, ptr, ptr, ptr, ptr, ptr, ptr, ptr, ptr, ptr, [64 x %struct.dt_pthread_mutex_t], %struct.dt_pthread_mutex_t, %struct.dt_pthread_mutex_t, %struct.dt_pthread_mutex_t, %struct.dt_pthread_mutex_t, %struct.dt_pthread_mutex_t, ptr, ptr, ptr, ptr, ptr, ptr, ptr, ptr, ptr, ptr, ptr, ptr, ptr, %struct.dt_lua_state_t, ptr, double, ptr, i32, [47 x i32], i32, i32, ptr, ptr, %struct.dt_sys_resources_t, %struct.dt_backthumb_t, %struct.dt_gimp_t }
%struct.dt_codepath_t = type { i8, [3 x i8] }
%struct.dt_pthread_mutex_t = type { %union.pthread_mutex_t }
%union.pthread_mutex_t = type { %struct.__pthread_mutex_s }
%struct.__pthread_mutex_s = type { i32, i32, i32, i32, i32, i16, i16, %struct.__pthread_internal_list }
%struct.__pthread_internal_list = type { ptr, ptr }
%struct.dt_lua_state_t = type { i32 }
%struct.dt_sys_resources_t = type { i64, i64, ptr, ptr, i32 }
%struct.dt_backthumb_t = type { double, double, i32, i32, i32, i32 }
%struct.dt_gimp_t = type { i32, ptr, ptr, i32, i32 }

@darktable = external global %struct.darktable_t, align 8

; Function Attrs: nounwind uwtable
define i32 @dt_tag_set_tags(ptr noundef %0, ptr noundef %1, i32 noundef %2, i32 noundef %3, i32 noundef %4) #0 {
  %6 = alloca i32, align 4
  %7 = alloca ptr, align 8
  %8 = alloca ptr, align 8
  %9 = alloca i32, align 4
  %10 = alloca i32, align 4
  %11 = alloca i32, align 4
  %12 = alloca ptr, align 8
  %13 = alloca i32, align 4
  store ptr %0, ptr %7, align 8, !tbaa !59
  store ptr %1, ptr %8, align 8, !tbaa !59
  store i32 %2, ptr %9, align 4, !tbaa !52
  store i32 %3, ptr %10, align 4, !tbaa !52
  store i32 %4, ptr %11, align 4, !tbaa !52
  %14 = load ptr, ptr %8, align 8, !tbaa !59
  %15 = icmp ne ptr %14, null
  br i1 %15, label %16, label %43

16:                                               ; preds = %5
  call void @llvm.lifetime.start.p0(i64 8, ptr %12) #8
  store ptr null, ptr %12, align 8, !tbaa !59
  %17 = load i32, ptr %11, align 4, !tbaa !52
  %18 = icmp ne i32 %17, 0
  br i1 %18, label %19, label %21

19:                                               ; preds = %16
  %20 = load ptr, ptr getelementptr inbounds nuw (%struct.darktable_t, ptr @darktable, i32 0, i32 27), align 8, !tbaa !65
  call void @dt_undo_start_group(ptr noundef %20, i32 noundef 32)
  br label %21

21:                                               ; preds = %19, %16
  call void @llvm.lifetime.start.p0(i64 4, ptr %13) #8
  %22 = load ptr, ptr %7, align 8, !tbaa !59
  %23 = load ptr, ptr %8, align 8, !tbaa !59
  %24 = load i32, ptr %11, align 4, !tbaa !52
  %25 = load i32, ptr %10, align 4, !tbaa !52
  %26 = icmp ne i32 %25, 0
  br i1 %26, label %27, label %31

27:                                               ; preds = %21
  %28 = load i32, ptr %9, align 4, !tbaa !52
  %29 = icmp ne i32 %28, 0
  %30 = select i1 %29, i32 2, i32 3
  br label %32

31:                                               ; preds = %21
  br label %32

32:                                               ; preds = %31, %27
  %33 = phi i32 [ %30, %27 ], [ 0, %31 ]
  %34 = call i32 @_tag_execute(ptr noundef %22, ptr noundef %23, ptr noundef %12, i32 noundef %24, i32 noundef %33)
  store i32 %34, ptr %13, align 4, !tbaa !52
  %35 = load i32, ptr %11, align 4, !tbaa !52
  %36 = icmp ne i32 %35, 0
  br i1 %36, label %37, label %41

37:                                               ; preds = %32
  %38 = load ptr, ptr getelementptr inbounds nuw (%struct.darktable_t, ptr @darktable, i32 0, i32 27), align 8, !tbaa !65
  %39 = load ptr, ptr %12, align 8, !tbaa !59
  call void @dt_undo_record(ptr noundef %38, ptr noundef null, i32 noundef 32, ptr noundef %39, ptr noundef @_pop_undo, ptr noundef @_tags_undo_data_free)
  %40 = load ptr, ptr getelementptr inbounds nuw (%struct.darktable_t, ptr @darktable, i32 0, i32 27), align 8, !tbaa !65
  call void @dt_undo_end_group(ptr noundef %40)
  br label %41

41:                                               ; preds = %37, %32
  %42 = load i32, ptr %13, align 4, !tbaa !52
  store i32 %42, ptr %6, align 4
  call void @llvm.lifetime.end.p0(i64 4, ptr %13) #8
  call void @llvm.lifetime.end.p0(i64 8, ptr %12) #8
  br label %44

43:                                               ; preds = %5
  store i32 0, ptr %6, align 4
  br label %44

44:                                               ; preds = %43, %41
  %45 = load i32, ptr %6, align 4
  ret i32 %45
}