; Function Attrs: nounwind uwtable
define range(i32 0, 2) i32 @dt_tag_set_tags(ptr noundef %0, ptr noundef readonly %1, i32 noundef %2, i32 noundef %3, i32 noundef %4) local_unnamed_addr #0 {
  %6 = alloca ptr, align 8
  %.not = icmp eq ptr %1, null
  br i1 %.not, label %20, label %7

7:                                                ; preds = %5
  call void @llvm.lifetime.start.p0(i64 8, ptr nonnull %6) #11
  store ptr null, ptr %6, align 8, !tbaa !63
  %.not13 = icmp eq i32 %4, 0
  br i1 %.not13, label %.thread, label %11

.thread:                                          ; preds = %7
  %.not14 = icmp eq i32 %3, 0
  %.not15 = icmp eq i32 %2, 0
  %8 = select i1 %.not15, i32 3, i32 2
  %9 = select i1 %.not14, i32 0, i32 %8
  %10 = call fastcc i32 @_tag_execute(ptr noundef %0, ptr noundef %1, ptr noundef %6, i32 noundef 0, i32 noundef %9)
  br label %19

11:                                               ; preds = %7
  %12 = load ptr, ptr getelementptr inbounds nuw (i8, ptr @darktable, i64 208), align 8, !tbaa !64
  tail call void @dt_undo_start_group(ptr noundef %12, i32 noundef 32) #11
  %.not16 = icmp eq i32 %3, 0
  %.not17 = icmp eq i32 %2, 0
  %13 = select i1 %.not17, i32 3, i32 2
  %14 = select i1 %.not16, i32 0, i32 %13
  %15 = call fastcc i32 @_tag_execute(ptr noundef %0, ptr noundef %1, ptr noundef %6, i32 noundef %4, i32 noundef %14)
  %16 = load ptr, ptr getelementptr inbounds nuw (i8, ptr @darktable, i64 208), align 8, !tbaa !64
  %17 = load ptr, ptr %6, align 8, !tbaa !63
  tail call void @dt_undo_record(ptr noundef %16, ptr noundef null, i32 noundef 32, ptr noundef %17, ptr noundef nonnull @_pop_undo, ptr noundef nonnull @_tags_undo_data_free) #11
  %18 = load ptr, ptr getelementptr inbounds nuw (i8, ptr @darktable, i64 208), align 8, !tbaa !64
  tail call void @dt_undo_end_group(ptr noundef %18) #11
  br label %19

19:                                               ; preds = %.thread, %11
  %phi.call19 = phi i32 [ %10, %.thread ], [ %15, %11 ]
  call void @llvm.lifetime.end.p0(i64 8, ptr nonnull %6) #11
  br label %20

20:                                               ; preds = %5, %19
  %.0 = phi i32 [ %phi.call19, %19 ], [ 0, %5 ]
  ret i32 %.0
}